target datalayout = "e-m:e-p270:32:32-p271:32:32-p272:64:64-i64:64-i128:128-f80:128-n8:16:32:64-S128"
target triple = "x86_64-pc-linux-gnu"

%struct.AVFormatContext = type { ptr, ptr, ptr, ptr, ptr, i32, i32, ptr, i32, ptr, i32, ptr, ptr, i64, i64, i64, i32, i32, i32, i64, i64, ptr, i32, i32, ptr, i32, i32, i32, i32, ptr, i64, i32, i32, %struct.AVIOInterruptCB, i32, i32, i32, i32, i64, i32, i32, i32, i32, i32, i32, i32, i32, i32, i32, i32, i32, i64, i32, i32, i32, i32, i32, ptr, ptr, ptr, ptr, i32, ptr, ptr, ptr, ptr, i32, ptr, ptr, i64, ptr, ptr, ptr, i64 }
%struct.AVIOInterruptCB = type { ptr, ptr }
%struct.AVPacket = type { ptr, i64, i64, ptr, i32, i32, i32, ptr, i32, i64, i64, ptr, ptr, %struct.AVRational }
%struct.AVRational = type { i32, i32 }
%struct.IEC61937Context = type { ptr, i32, i32, i32, ptr, i32, ptr, i32, i32, i32, [2 x ptr], i32, i32, i32, i32, i32, i16, i32, i32, i32, i32, i32, ptr }

@.str.13 = private unnamed_addr constant [24 x i8] c"Wrong MPEG file format\0A\00", align 1
@.str.14 = private unnamed_addr constant [37 x i8] c"version: %i layer: %i extension: %i\0A\00", align 1
@mpeg_data_type = internal constant [2 x [3 x i32]] [[3 x i32] [i32 8, i32 9, i32 10], [3 x i32] [i32 4, i32 5, i32 5]], align 16
@spdif_mpeg_pkt_offset = internal constant [2 x [3 x i16]] [[3 x i16] [i16 3072, i16 9216, i16 4608], [3 x i16] [i16 1536, i16 4608, i16 4608]], align 2

; Function Attrs: nounwind uwtable
define internal i32 @spdif_header_mpeg(ptr noundef %0, ptr noundef %1) #0 {
  %3 = alloca i32, align 4
  %4 = alloca ptr, align 8
  %5 = alloca ptr, align 8
  %6 = alloca ptr, align 8
  %7 = alloca i32, align 4
  %8 = alloca i32, align 4
  %9 = alloca i32, align 4
  %10 = alloca i32, align 4
  store ptr %0, ptr %4, align 8, !tbaa !4
  store ptr %1, ptr %5, align 8, !tbaa !48
  call void @llvm.lifetime.start.p0(i64 8, ptr %6) #7
  %11 = load ptr, ptr %4, align 8, !tbaa !4
  %12 = getelementptr inbounds nuw %struct.AVFormatContext, ptr %11, i32 0, i32 3
  %13 = load ptr, ptr %12, align 8, !tbaa !9
  store ptr %13, ptr %6, align 8, !tbaa !26
  call void @llvm.lifetime.start.p0(i64 4, ptr %7) #7
  %14 = load ptr, ptr %5, align 8, !tbaa !48
  %15 = getelementptr inbounds nuw %struct.AVPacket, ptr %14, i32 0, i32 3
  %16 = load ptr, ptr %15, align 8, !tbaa !50
  %17 = getelementptr inbounds i8, ptr %16, i64 1
  %18 = load i8, ptr %17, align 1, !tbaa !62
  %19 = zext i8 %18 to i32
  %20 = ashr i32 %19, 3
  %21 = and i32 %20, 3
  store i32 %21, ptr %7, align 4, !tbaa !44
  call void @llvm.lifetime.start.p0(i64 4, ptr %8) #7
  %22 = load ptr, ptr %5, align 8, !tbaa !48
  %23 = getelementptr inbounds nuw %struct.AVPacket, ptr %22, i32 0, i32 3
  %24 = load ptr, ptr %23, align 8, !tbaa !50
  %25 = getelementptr inbounds i8, ptr %24, i64 1
  %26 = load i8, ptr %25, align 1, !tbaa !62
  %27 = zext i8 %26 to i32
  %28 = ashr i32 %27, 1
  %29 = and i32 %28, 3
  %30 = sub nsw i32 3, %29
  store i32 %30, ptr %8, align 4, !tbaa !44
  call void @llvm.lifetime.start.p0(i64 4, ptr %9) #7
  %31 = load ptr, ptr %5, align 8, !tbaa !48
  %32 = getelementptr inbounds nuw %struct.AVPacket, ptr %31, i32 0, i32 3
  %33 = load ptr, ptr %32, align 8, !tbaa !50
  %34 = getelementptr inbounds i8, ptr %33, i64 2
  %35 = load i8, ptr %34, align 1, !tbaa !62
  %36 = zext i8 %35 to i32
  %37 = and i32 %36, 1
  store i32 %37, ptr %9, align 4, !tbaa !44
  %38 = load i32, ptr %8, align 4, !tbaa !44
  %39 = icmp eq i32 %38, 3
  br i1 %39, label %43, label %40

40:                                               ; preds = %2
  %41 = load i32, ptr %7, align 4, !tbaa !44
  %42 = icmp eq i32 %41, 1
  br i1 %42, label %43, label %45

43:                                               ; preds = %40, %2
  %44 = load ptr, ptr %4, align 8, !tbaa !4
  call void (ptr, i32, ptr, ...) @av_log(ptr noundef %44, i32 noundef 16, ptr noundef @.str.13)
  store i32 -1094995529, ptr %3, align 4
  store i32 1, ptr %10, align 4
  br label %83

45:                                               ; preds = %40
  %46 = load ptr, ptr %4, align 8, !tbaa !4
  %47 = load i32, ptr %7, align 4, !tbaa !44
  %48 = load i32, ptr %8, align 4, !tbaa !44
  %49 = load i32, ptr %9, align 4, !tbaa !44
  call void (ptr, i32, ptr, ...) @av_log(ptr noundef %46, i32 noundef 48, ptr noundef @.str.14, i32 noundef %47, i32 noundef %48, i32 noundef %49)
  %50 = load i32, ptr %7, align 4, !tbaa !44
  %51 = icmp eq i32 %50, 2
  br i1 %51, label %52, label %60

52:                                               ; preds = %45
  %53 = load i32, ptr %9, align 4, !tbaa !44
  %54 = icmp ne i32 %53, 0
  br i1 %54, label %55, label %60

55:                                               ; preds = %52
  %56 = load ptr, ptr %6, align 8, !tbaa !26
  %57 = getelementptr inbounds nuw %struct.IEC61937Context, ptr %56, i32 0, i32 1
  store i32 6, ptr %57, align 8, !tbaa !59
  %58 = load ptr, ptr %6, align 8, !tbaa !26
  %59 = getelementptr inbounds nuw %struct.IEC61937Context, ptr %58, i32 0, i32 3
  store i32 4608, ptr %59, align 8, !tbaa !57
  br label %82

60:                                               ; preds = %52, %45
  %61 = load i32, ptr %7, align 4, !tbaa !44
  %62 = and i32 %61, 1
  %63 = sext i32 %62 to i64
  %64 = getelementptr inbounds [2 x [3 x i32]], ptr @mpeg_data_type, i64 0, i64 %63
  %65 = load i32, ptr %8, align 4, !tbaa !44
  %66 = sext i32 %65 to i64
  %67 = getelementptr inbounds [3 x i32], ptr %64, i64 0, i64 %66
  %68 = load i32, ptr %67, align 4, !tbaa !44
  %69 = load ptr, ptr %6, align 8, !tbaa !26
  %70 = getelementptr inbounds nuw %struct.IEC61937Context, ptr %69, i32 0, i32 1
  store i32 %68, ptr %70, align 8, !tbaa !59
  %71 = load i32, ptr %7, align 4, !tbaa !44
  %72 = and i32 %71, 1
  %73 = sext i32 %72 to i64
  %74 = getelementptr inbounds [2 x [3 x i16]], ptr @spdif_mpeg_pkt_offset, i64 0, i64 %73
  %75 = load i32, ptr %8, align 4, !tbaa !44
  %76 = sext i32 %75 to i64
  %77 = getelementptr inbounds [3 x i16], ptr %74, i64 0, i64 %76
  %78 = load i16, ptr %77, align 2, !tbaa !66
  %79 = zext i16 %78 to i32
  %80 = load ptr, ptr %6, align 8, !tbaa !26
  %81 = getelementptr inbounds nuw %struct.IEC61937Context, ptr %80, i32 0, i32 3
  store i32 %79, ptr %81, align 8, !tbaa !57
  br label %82

82:                                               ; preds = %60, %55
  store i32 0, ptr %3, align 4
  store i32 1, ptr %10, align 4
  br label %83

83:                                               ; preds = %82, %43
  call void @llvm.lifetime.end.p0(i64 4, ptr %9) #7
  call void @llvm.lifetime.end.p0(i64 4, ptr %8) #7
  call void @llvm.lifetime.end.p0(i64 4, ptr %7) #7
  call void @llvm.lifetime.end.p0(i64 8, ptr %6) #7
  %84 = load i32, ptr %3, align 4
  ret i32 %84
}