; Function Attrs: nounwind uwtable
define internal range(i32 -1094995529, 1) i32 @spdif_header_mpeg(ptr noundef %0, ptr noundef readonly captures(none) %1) #0 {
  %3 = getelementptr inbounds nuw i8, ptr %0, i64 24
  %4 = load ptr, ptr %3, align 8, !tbaa !4
  %5 = getelementptr inbounds nuw i8, ptr %1, i64 24
  %6 = load ptr, ptr %5, align 8, !tbaa !41
  %7 = getelementptr inbounds nuw i8, ptr %6, i64 1
  %8 = load i8, ptr %7, align 1, !tbaa !53
  %9 = zext i8 %8 to i32
  %10 = lshr i32 %9, 3
  %11 = and i32 %10, 3
  %12 = lshr i32 %9, 1
  %13 = and i32 %12, 3
  %14 = xor i32 %13, 3
  %15 = icmp eq i32 %13, 0
  %16 = icmp eq i32 %11, 1
  %or.cond = or i1 %15, %16
  br i1 %or.cond, label %17, label %18

17:                                               ; preds = %2
  tail call void (ptr, i32, ptr, ...) @av_log(ptr noundef nonnull %0, i32 noundef 16, ptr noundef nonnull @.str.13) #7
  br label %39

18:                                               ; preds = %2
  %19 = getelementptr inbounds nuw i8, ptr %6, i64 2
  %20 = load i8, ptr %19, align 1, !tbaa !53
  %21 = and i8 %20, 1
  %22 = zext nneg i8 %21 to i32
  tail call void (ptr, i32, ptr, ...) @av_log(ptr noundef nonnull %0, i32 noundef 48, ptr noundef nonnull @.str.14, i32 noundef %11, i32 noundef %14, i32 noundef %22) #7
  %23 = icmp eq i32 %11, 2
  %24 = icmp ne i8 %21, 0
  %or.cond3 = and i1 %23, %24
  br i1 %or.cond3, label %25, label %28

25:                                               ; preds = %18
  %26 = getelementptr inbounds nuw i8, ptr %4, i64 8
  store i32 6, ptr %26, align 8, !tbaa !51
  %27 = getelementptr inbounds nuw i8, ptr %4, i64 16
  store i32 4608, ptr %27, align 8, !tbaa !48
  br label %39

28:                                               ; preds = %18
  %29 = and i32 %10, 1
  %30 = zext nneg i32 %29 to i64
  %31 = zext nneg i32 %14 to i64
  %32 = getelementptr inbounds nuw [2 x [3 x i32]], ptr @mpeg_data_type, i64 0, i64 %30, i64 %31
  %33 = load i32, ptr %32, align 4, !tbaa !56
  %34 = getelementptr inbounds nuw i8, ptr %4, i64 8
  store i32 %33, ptr %34, align 8, !tbaa !51
  %35 = getelementptr inbounds nuw [2 x [3 x i16]], ptr @spdif_mpeg_pkt_offset, i64 0, i64 %30, i64 %31
  %36 = load i16, ptr %35, align 2, !tbaa !57
  %37 = zext i16 %36 to i32
  %38 = getelementptr inbounds nuw i8, ptr %4, i64 16
  store i32 %37, ptr %38, align 8, !tbaa !48
  br label %39

39:                                               ; preds = %25, %28, %17
  %.0 = phi i32 [ -1094995529, %17 ], [ 0, %28 ], [ 0, %25 ]
  ret i32 %.0
}